; Function Attrs: mustprogress uwtable
define hidden void @_ZN2cv11AvifDecoderC2Ev(ptr noundef nonnull align 8 dereferenceable(392) %0) unnamed_addr #4 align 2 {
  tail call void @_ZN2cv16BaseImageDecoderC2Ev(ptr noundef nonnull align 8 dereferenceable(368) %0)
  store ptr getelementptr inbounds nuw inrange(-16, 104) (i8, ptr @_ZTVN2cv11AvifDecoderE, i64 16), ptr %0, align 8, !tbaa !3
  %2 = getelementptr inbounds nuw i8, ptr %0, i64 184
  store i8 1, ptr %2, align 8, !tbaa !6
  %3 = getelementptr inbounds nuw i8, ptr %0, i64 368
  store i32 0, ptr %3, align 8, !tbaa !51
  %4 = getelementptr inbounds nuw i8, ptr %0, i64 376
  store ptr null, ptr %4, align 8, !tbaa !54
  ret void
}